target datalayout = "e-m:e-p270:32:32-p271:32:32-p272:64:64-i64:64-i128:128-f80:128-n8:16:32:64-S128"
target triple = "x86_64-pc-linux-gnu"

%struct.buf_mem_st = type { i64, ptr, i64, i64 }

; Function Attrs: nounwind uwtable
define ptr @ASN1_d2i_bio(ptr noundef %0, ptr noundef %1, ptr noundef %2, ptr noundef %3) #0 {
  %5 = alloca ptr, align 8
  %6 = alloca ptr, align 8
  %7 = alloca ptr, align 8
  %8 = alloca ptr, align 8
  %9 = alloca ptr, align 8
  %10 = alloca ptr, align 8
  %11 = alloca ptr, align 8
  %12 = alloca i32, align 4
  store ptr %0, ptr %5, align 8, !tbaa !3
  store ptr %1, ptr %6, align 8, !tbaa !3
  store ptr %2, ptr %7, align 8, !tbaa !9
  store ptr %3, ptr %8, align 8, !tbaa !3
  call void @llvm.lifetime.start.p0(i64 8, ptr %9) #4
  store ptr null, ptr %9, align 8, !tbaa !11
  call void @llvm.lifetime.start.p0(i64 8, ptr %10) #4
  call void @llvm.lifetime.start.p0(i64 8, ptr %11) #4
  store ptr null, ptr %11, align 8, !tbaa !3
  call void @llvm.lifetime.start.p0(i64 4, ptr %12) #4
  %13 = load ptr, ptr %7, align 8, !tbaa !9
  %14 = call i32 @asn1_d2i_read_bio(ptr noundef %13, ptr noundef %9)
  store i32 %14, ptr %12, align 4, !tbaa !13
  %15 = load i32, ptr %12, align 4, !tbaa !13
  %16 = icmp slt i32 %15, 0
  br i1 %16, label %17, label %18

17:                                               ; preds = %4
  br label %27

18:                                               ; preds = %4
  %19 = load ptr, ptr %9, align 8, !tbaa !11
  %20 = getelementptr inbounds nuw %struct.buf_mem_st, ptr %19, i32 0, i32 1
  %21 = load ptr, ptr %20, align 8, !tbaa !15
  store ptr %21, ptr %10, align 8, !tbaa !19
  %22 = load ptr, ptr %6, align 8, !tbaa !3
  %23 = load ptr, ptr %8, align 8, !tbaa !3
  %24 = load i32, ptr %12, align 4, !tbaa !13
  %25 = sext i32 %24 to i64
  %26 = call ptr %22(ptr noundef %23, ptr noundef %10, i64 noundef %25)
  store ptr %26, ptr %11, align 8, !tbaa !3
  br label %27

27:                                               ; preds = %18, %17
  %28 = load ptr, ptr %9, align 8, !tbaa !11
  call void @BUF_MEM_free(ptr noundef %28)
  %29 = load ptr, ptr %11, align 8, !tbaa !3
  call void @llvm.lifetime.end.p0(i64 4, ptr %12) #4
  call void @llvm.lifetime.end.p0(i64 8, ptr %11) #4
  call void @llvm.lifetime.end.p0(i64 8, ptr %10) #4
  call void @llvm.lifetime.end.p0(i64 8, ptr %9) #4
  ret ptr %29
}