; Function Attrs: nounwind uwtable
define ptr @ASN1_d2i_bio(ptr noundef readnone captures(none) %0, ptr noundef readonly captures(none) %1, ptr noundef %2, ptr noundef %3) local_unnamed_addr #0 {
  %5 = alloca ptr, align 8
  %6 = alloca ptr, align 8
  call void @llvm.lifetime.start.p0(i64 8, ptr nonnull %5) #4
  store ptr null, ptr %5, align 8, !tbaa !3
  call void @llvm.lifetime.start.p0(i64 8, ptr nonnull %6) #4
  %7 = call i32 @asn1_d2i_read_bio(ptr noundef %2, ptr noundef nonnull %5)
  %8 = icmp slt i32 %7, 0
  %.pre = load ptr, ptr %5, align 8, !tbaa !3
  br i1 %8, label %14, label %9

9:                                                ; preds = %4
  %10 = getelementptr inbounds nuw i8, ptr %.pre, i64 8
  %11 = load ptr, ptr %10, align 8, !tbaa !8
  store ptr %11, ptr %6, align 8, !tbaa !12
  %12 = zext nneg i32 %7 to i64
  %13 = call ptr %1(ptr noundef %3, ptr noundef nonnull %6, i64 noundef %12) #4
  br label %14

14:                                               ; preds = %4, %9
  %.0 = phi ptr [ null, %4 ], [ %13, %9 ]
  call void @BUF_MEM_free(ptr noundef %.pre) #4
  call void @llvm.lifetime.end.p0(i64 8, ptr nonnull %6) #4
  call void @llvm.lifetime.end.p0(i64 8, ptr nonnull %5) #4
  ret ptr %.0
}